target datalayout = "e-m:e-p270:32:32-p271:32:32-p272:64:64-i64:64-i128:128-f80:128-n8:16:32:64-S128"
target triple = "x86_64-unknown-linux-gnu"

%class.b2Island = type { ptr, ptr, ptr, ptr, ptr, ptr, ptr, i32, i32, i32, i32, i32, i32 }

; Function Attrs: mustprogress nounwind uwtable
define hidden void @_ZN8b2IslandD2Ev(ptr noundef nonnull align 8 dereferenceable(80) %this) unnamed_addr #2 align 2 personality ptr @__gxx_personality_v0 {
entry:
  %this.addr = alloca ptr, align 8
  store ptr %this, ptr %this.addr, align 8
  %this1 = load ptr, ptr %this.addr, align 8
  %m_allocator = getelementptr inbounds %class.b2Island, ptr %this1, i32 0, i32 0
  %0 = load ptr, ptr %m_allocator, align 8
  %m_positions = getelementptr inbounds %class.b2Island, ptr %this1, i32 0, i32 5
  %1 = load ptr, ptr %m_positions, align 8
  invoke void @_ZN16b2StackAllocator4FreeEPv(ptr noundef nonnull align 8 dereferenceable(102932) %0, ptr noundef %1)
          to label %invoke.cont unwind label %terminate.lpad

invoke.cont:                                      ; preds = %entry
  %m_allocator2 = getelementptr inbounds %class.b2Island, ptr %this1, i32 0, i32 0
  %2 = load ptr, ptr %m_allocator2, align 8
  %m_velocities = getelementptr inbounds %class.b2Island, ptr %this1, i32 0, i32 6
  %3 = load ptr, ptr %m_velocities, align 8
  invoke void @_ZN16b2StackAllocator4FreeEPv(ptr noundef nonnull align 8 dereferenceable(102932) %2, ptr noundef %3)
          to label %invoke.cont3 unwind label %terminate.lpad

invoke.cont3:                                     ; preds = %invoke.cont
  %m_allocator4 = getelementptr inbounds %class.b2Island, ptr %this1, i32 0, i32 0
  %4 = load ptr, ptr %m_allocator4, align 8
  %m_joints = getelementptr inbounds %class.b2Island, ptr %this1, i32 0, i32 4
  %5 = load ptr, ptr %m_joints, align 8
  invoke void @_ZN16b2StackAllocator4FreeEPv(ptr noundef nonnull align 8 dereferenceable(102932) %4, ptr noundef %5)
          to label %invoke.cont5 unwind label %terminate.lpad

invoke.cont5:                                     ; preds = %invoke.cont3
  %m_allocator6 = getelementptr inbounds %class.b2Island, ptr %this1, i32 0, i32 0
  %6 = load ptr, ptr %m_allocator6, align 8
  %m_contacts = getelementptr inbounds %class.b2Island, ptr %this1, i32 0, i32 3
  %7 = load ptr, ptr %m_contacts, align 8
  invoke void @_ZN16b2StackAllocator4FreeEPv(ptr noundef nonnull align 8 dereferenceable(102932) %6, ptr noundef %7)
          to label %invoke.cont7 unwind label %terminate.lpad

invoke.cont7:                                     ; preds = %invoke.cont5
  %m_allocator8 = getelementptr inbounds %class.b2Island, ptr %this1, i32 0, i32 0
  %8 = load ptr, ptr %m_allocator8, align 8
  %m_bodies = getelementptr inbounds %class.b2Island, ptr %this1, i32 0, i32 2
  %9 = load ptr, ptr %m_bodies, align 8
  invoke void @_ZN16b2StackAllocator4FreeEPv(ptr noundef nonnull align 8 dereferenceable(102932) %8, ptr noundef %9)
          to label %invoke.cont9 unwind label %terminate.lpad

invoke.cont9:                                     ; preds = %invoke.cont7
  ret void

terminate.lpad:                                   ; preds = %invoke.cont7, %invoke.cont5, %invoke.cont3, %invoke.cont, %entry
  %10 = landingpad { ptr, i32 }
          catch ptr null
  %11 = extractvalue { ptr, i32 } %10, 0
  call void @__clang_call_terminate(ptr %11) #8
  unreachable
}