; Function Attrs: mustprogress nounwind uwtable
define hidden void @_ZN8b2IslandD2Ev(ptr noundef nonnull readonly align 8 captures(none) dereferenceable(80) %this) unnamed_addr #2 align 2 personality ptr @__gxx_personality_v0 {
entry:
  %0 = load ptr, ptr %this, align 8
  %m_positions = getelementptr inbounds nuw i8, ptr %this, i64 40
  %1 = load ptr, ptr %m_positions, align 8
  invoke void @_ZN16b2StackAllocator4FreeEPv(ptr noundef nonnull align 8 dereferenceable(102932) %0, ptr noundef %1)
          to label %invoke.cont unwind label %terminate.lpad

invoke.cont:                                      ; preds = %entry
  %2 = load ptr, ptr %this, align 8
  %m_velocities = getelementptr inbounds nuw i8, ptr %this, i64 48
  %3 = load ptr, ptr %m_velocities, align 8
  invoke void @_ZN16b2StackAllocator4FreeEPv(ptr noundef nonnull align 8 dereferenceable(102932) %2, ptr noundef %3)
          to label %invoke.cont3 unwind label %terminate.lpad

invoke.cont3:                                     ; preds = %invoke.cont
  %4 = load ptr, ptr %this, align 8
  %m_joints = getelementptr inbounds nuw i8, ptr %this, i64 32
  %5 = load ptr, ptr %m_joints, align 8
  invoke void @_ZN16b2StackAllocator4FreeEPv(ptr noundef nonnull align 8 dereferenceable(102932) %4, ptr noundef %5)
          to label %invoke.cont5 unwind label %terminate.lpad

invoke.cont5:                                     ; preds = %invoke.cont3
  %6 = load ptr, ptr %this, align 8
  %m_contacts = getelementptr inbounds nuw i8, ptr %this, i64 24
  %7 = load ptr, ptr %m_contacts, align 8
  invoke void @_ZN16b2StackAllocator4FreeEPv(ptr noundef nonnull align 8 dereferenceable(102932) %6, ptr noundef %7)
          to label %invoke.cont7 unwind label %terminate.lpad

invoke.cont7:                                     ; preds = %invoke.cont5
  %8 = load ptr, ptr %this, align 8
  %m_bodies = getelementptr inbounds nuw i8, ptr %this, i64 16
  %9 = load ptr, ptr %m_bodies, align 8
  invoke void @_ZN16b2StackAllocator4FreeEPv(ptr noundef nonnull align 8 dereferenceable(102932) %8, ptr noundef %9)
          to label %invoke.cont9 unwind label %terminate.lpad

invoke.cont9:                                     ; preds = %invoke.cont7
  ret void

terminate.lpad:                                   ; preds = %invoke.cont7, %invoke.cont5, %invoke.cont3, %invoke.cont, %entry
  %10 = landingpad { ptr, i32 }
          catch ptr null
  %11 = extractvalue { ptr, i32 } %10, 0
  tail call void @__clang_call_terminate(ptr %11) #13
  unreachable
}